GAS LISTING /tmp/cc7C0tdQ.s 			page 1


   1              		.file	"main.cpp"
   2              		.text
   3              	.Ltext0:
   4              		.section	.rodata
   7              	_ZStL19piecewise_construct:
   8 0000 00       		.zero	1
   9              		.local	_ZStL8__ioinit
  10              		.comm	_ZStL8__ioinit,1,1
  11              	.LC0:
  12 0001 61203D20 		.string	"a = %lu\nb = %lu\n"
  12      256C750A 
  12      62203D20 
  12      256C750A 
  12      00
  13              		.text
  14              		.globl	main
  16              	main:
  17              	.LFB1493:
  18              		.file 1 "main.cpp"
   1:main.cpp      **** #include <iostream>
   2:main.cpp      **** 
   3:main.cpp      **** 
   4:main.cpp      **** int strcmp(const char* s1, const char* s2);
   5:main.cpp      **** 
   6:main.cpp      **** int main() {
  19              		.loc 1 6 0
  20              		.cfi_startproc
  21 0000 55       		pushq	%rbp
  22              		.cfi_def_cfa_offset 16
  23              		.cfi_offset 6, -16
  24 0001 4889E5   		movq	%rsp, %rbp
  25              		.cfi_def_cfa_register 6
  26 0004 4883EC30 		subq	$48, %rsp
   7:main.cpp      **** 
   8:main.cpp      **** 
   9:main.cpp      ****     auto first  = (char*)calloc(1, sizeof(char));
  27              		.loc 1 9 0
  28 0008 BE010000 		movl	$1, %esi
  28      00
  29 000d BF010000 		movl	$1, %edi
  29      00
  30 0012 E8000000 		call	calloc@PLT
  30      00
  31 0017 488945D8 		movq	%rax, -40(%rbp)
  10:main.cpp      ****     auto second = (char*)calloc(1, sizeof(char));
  32              		.loc 1 10 0
  33 001b BE010000 		movl	$1, %esi
  33      00
  34 0020 BF010000 		movl	$1, %edi
  34      00
  35 0025 E8000000 		call	calloc@PLT
  35      00
  36 002a 488945E0 		movq	%rax, -32(%rbp)
  37              	.LBB2:
  11:main.cpp      **** 
  12:main.cpp      ****     for(int i(0); i< 5; ++i) {
  38              		.loc 1 12 0
GAS LISTING /tmp/cc7C0tdQ.s 			page 2


  39 002e C745D400 		movl	$0, -44(%rbp)
  39      000000
  40              	.L3:
  41              		.loc 1 12 0 is_stmt 0 discriminator 3
  42 0035 837DD404 		cmpl	$4, -44(%rbp)
  43 0039 0F8FB100 		jg	.L2
  43      0000
  44              	.LBB3:
  13:main.cpp      **** 
  14:main.cpp      ****         std::cin >> first;
  45              		.loc 1 14 0 is_stmt 1 discriminator 2
  46 003f 488B45D8 		movq	-40(%rbp), %rax
  47 0043 4889C6   		movq	%rax, %rsi
  48 0046 488D3D00 		leaq	_ZSt3cin(%rip), %rdi
  48      000000
  49 004d E8000000 		call	_ZStrsIcSt11char_traitsIcEERSt13basic_istreamIT_T0_ES6_PS3_@PLT
  49      00
  15:main.cpp      ****         std::cin >> second;
  50              		.loc 1 15 0 discriminator 2
  51 0052 488B45E0 		movq	-32(%rbp), %rax
  52 0056 4889C6   		movq	%rax, %rsi
  53 0059 488D3D00 		leaq	_ZSt3cin(%rip), %rdi
  53      000000
  54 0060 E8000000 		call	_ZStrsIcSt11char_traitsIcEERSt13basic_istreamIT_T0_ES6_PS3_@PLT
  54      00
  16:main.cpp      ****         size_t cmpflag(0);
  55              		.loc 1 16 0 discriminator 2
  56 0065 48C745E8 		movq	$0, -24(%rbp)
  56      00000000 
  17:main.cpp      ****         size_t a(0), b(0);
  57              		.loc 1 17 0 discriminator 2
  58 006d 48C745F0 		movq	$0, -16(%rbp)
  58      00000000 
  59 0075 48C745F8 		movq	$0, -8(%rbp)
  59      00000000 
  18:main.cpp      **** 
  19:main.cpp      ****         //.att_syntax noprefix
  20:main.cpp      ****         __asm__(
  21:main.cpp      ****         R"(
  22:main.cpp      ****             .intel_syntax noprefix
  23:main.cpp      ****             xor rcx, rcx
  24:main.cpp      **** 
  25:main.cpp      ****     loop:
  26:main.cpp      **** 
  27:main.cpp      ****             cmpsb
  28:main.cpp      ****             jne End
  29:main.cpp      **** 
  30:main.cpp      ****             mov al, [rsi - 1]
  31:main.cpp      ****             cmp al, 0
  32:main.cpp      ****             jne loop
  33:main.cpp      **** 
  34:main.cpp      ****     End:
  35:main.cpp      ****             xor rax, rax
  36:main.cpp      ****             xor rbx, rbx
  37:main.cpp      **** 
  38:main.cpp      ****             mov al, [rdi-1]
  39:main.cpp      ****             mov bl, [rsi-1]
GAS LISTING /tmp/cc7C0tdQ.s 			page 3


  40:main.cpp      **** 
  41:main.cpp      **** 
  42:main.cpp      **** 
  43:main.cpp      ****             mov %0, rax
  44:main.cpp      ****             mov %1, rbx
  45:main.cpp      **** 
  46:main.cpp      **** 
  47:main.cpp      ****             .att_syntax prefix
  48:main.cpp      **** 
  49:main.cpp      ****             )"
  50:main.cpp      ****         : "=r"(a), "=r"(b)
  51:main.cpp      ****         : "D"(first), "S"(second)
  52:main.cpp      ****         : "%rcx"
  53:main.cpp      **** 
  54:main.cpp      **** 
  55:main.cpp      ****         );
  60              		.loc 1 55 0 discriminator 2
  61 007d 488B45D8 		movq	-40(%rbp), %rax
  62 0081 488B55E0 		movq	-32(%rbp), %rdx
  63 0085 4889C7   		movq	%rax, %rdi
  64 0088 4889D6   		movq	%rdx, %rsi
  65              	#APP
  66              	# 55 "main.cpp" 1
  56              	
  57 008b 4831C9   	        __asm__(
  58              	                R"(
  59              	                nop
  60              	                nop
  61 008e A6       	                nop
  62 008f 7507     	
  63              	
  64 0091 8A46FF   	
  65 0094 3C00     	            )"
  66 0096 75F6     	                );
  67              	        strcmp(first, second);
  68              	
  69 0098 4831C0   	        __asm__(
  70 009b 4831DB   	        R"(
  71              	                nop
  72 009e 8A47FF   	                nop
  73 00a1 8A5EFF   	                nop
  74              	
  75              	
  76              	
  77 00a4 4889C2   	            )"
  78 00a7 4889D8   	        );
  79              	
  80              	
  81              	
  82              	        printf("a = %lu\nb = %lu\n", a, b);
  83              	
  84              	    //    if (!strcmp(first, second))
  67              		
  68              	            .intel_syntax noprefix
  69              	            xor rcx, rcx
  70              	
  71              	    loop:
GAS LISTING /tmp/cc7C0tdQ.s 			page 4


  72              	
  73              	            cmpsb
  74              	            jne End
  75              	
  76              	            mov al, [rsi - 1]
  77              	            cmp al, 0
  78              	            jne loop
  79              	
  80              	    End:
  81              	            xor rax, rax
  82              	            xor rbx, rbx
  83              	
  84              	            mov al, [rdi-1]
  85              	            mov bl, [rsi-1]
  86              	
  87              	
  88              	
  89              	            mov %rdx, rax
  90              	            mov %rax, rbx
  91              	
  92              	
  93              	            .att_syntax prefix
  94              	
  95              	            
  96              	# 0 "" 2
  97              	#NO_APP
  98 00aa 488955F0 		movq	%rdx, -16(%rbp)
  99 00ae 488945F8 		movq	%rax, -8(%rbp)
  66:main.cpp      ****  (char*)calloc(1, sizeof(char));
 100              		.loc 1 66 0 discriminator 2
 101              	#APP
 102              	# 66 "main.cpp" 1
  67:main.cpp      ****  (char*)calloc(1, sizeof(char));
 103              		
 104              	                nop
 105              	                nop
 106              	                nop
 107              	
 108              	
 109              	
 110              	            
 111              	# 0 "" 2
 112              		.loc 1 67 0 discriminator 2
 113              	#NO_APP
 114 00b5 488B55E0 		movq	-32(%rbp), %rdx
 115 00b9 488B45D8 		movq	-40(%rbp), %rax
 116 00bd 4889D6   		movq	%rdx, %rsi
 117 00c0 4889C7   		movq	%rax, %rdi
 118 00c3 E8000000 		call	_Z6strcmpPKcS0_
 118      00
  78:main.cpp      ****  (char*)calloc(1, sizeof(char));
 119              		.loc 1 78 0 discriminator 2
 120              	#APP
 121              	# 78 "main.cpp" 1
  85              	      //      printf("!\n");
  86              	    }
  82:main.cpp      ****  (char*)calloc(1, sizeof(char));
GAS LISTING /tmp/cc7C0tdQ.s 			page 5


 122              		
 123              	                nop
 124              	                nop
 125              	                nop
 126              	
 127              	
 128              	
 129              	            
 130              	# 0 "" 2
 131              		.loc 1 82 0 discriminator 2
 132              	#NO_APP
 133 00cb 488B55F8 		movq	-8(%rbp), %rdx
 134 00cf 488B45F0 		movq	-16(%rbp), %rax
 135 00d3 4889C6   		movq	%rax, %rsi
 136 00d6 488D3D00 		leaq	.LC0(%rip), %rdi
 136      000000
 137 00dd B8000000 		movl	$0, %eax
 137      00
 138 00e2 E8000000 		call	printf@PLT
 138      00
 139              	.LBE3:
  12:main.cpp      ****  (char*)calloc(1, sizeof(char));
 140              		.loc 1 12 0 discriminator 2
 141 00e7 8345D401 		addl	$1, -44(%rbp)
 142 00eb E945FFFF 		jmp	.L3
 142      FF
 143              	.L2:
 144              	.LBE2:
  87:main.cpp      **** }
 145              		.loc 1 87 0
 146 00f0 B8000000 		movl	$0, %eax
 146      00
 147 00f5 C9       		leave
 148              		.cfi_def_cfa 7, 8
 149 00f6 C3       		ret
 150              		.cfi_endproc
 151              	.LFE1493:
 153              		.globl	_Z6strcmpPKcS0_
 155              	_Z6strcmpPKcS0_:
 156              	.LFB1494:
  88:main.cpp      **** 
  89:main.cpp      **** 
  90:main.cpp      **** int strcmp(const char* s1, const char* s2)
  91:main.cpp      **** {
 157              		.loc 1 91 0
 158              		.cfi_startproc
 159 00f7 55       		pushq	%rbp
 160              		.cfi_def_cfa_offset 16
 161              		.cfi_offset 6, -16
 162 00f8 4889E5   		movq	%rsp, %rbp
 163              		.cfi_def_cfa_register 6
 164 00fb 48897DF8 		movq	%rdi, -8(%rbp)
 165 00ff 488975F0 		movq	%rsi, -16(%rbp)
 166              	.L7:
  92:main.cpp      ****     while(*s1 && (*s1==*s2))
 167              		.loc 1 92 0
 168 0103 488B45F8 		movq	-8(%rbp), %rax
GAS LISTING /tmp/cc7C0tdQ.s 			page 6


 169 0107 0FB600   		movzbl	(%rax), %eax
 170 010a 84C0     		testb	%al, %al
 171 010c 741E     		je	.L6
 172              		.loc 1 92 0 is_stmt 0 discriminator 1
 173 010e 488B45F8 		movq	-8(%rbp), %rax
 174 0112 0FB610   		movzbl	(%rax), %edx
 175 0115 488B45F0 		movq	-16(%rbp), %rax
 176 0119 0FB600   		movzbl	(%rax), %eax
 177 011c 38C2     		cmpb	%al, %dl
 178 011e 750C     		jne	.L6
  93:main.cpp      ****         s1++,s2++;
 179              		.loc 1 93 0 is_stmt 1
 180 0120 488345F8 		addq	$1, -8(%rbp)
 180      01
 181 0125 488345F0 		addq	$1, -16(%rbp)
 181      01
  92:main.cpp      ****     while(*s1 && (*s1==*s2))
 182              		.loc 1 92 0
 183 012a EBD7     		jmp	.L7
 184              	.L6:
  94:main.cpp      ****     return *(const unsigned char*)s1-*(const unsigned char*)s2;
 185              		.loc 1 94 0
 186 012c 488B45F8 		movq	-8(%rbp), %rax
 187 0130 0FB600   		movzbl	(%rax), %eax
 188 0133 0FB6D0   		movzbl	%al, %edx
 189 0136 488B45F0 		movq	-16(%rbp), %rax
 190 013a 0FB600   		movzbl	(%rax), %eax
 191 013d 0FB6C0   		movzbl	%al, %eax
 192 0140 29C2     		subl	%eax, %edx
 193 0142 89D0     		movl	%edx, %eax
  95:main.cpp      **** }
 194              		.loc 1 95 0
 195 0144 5D       		popq	%rbp
 196              		.cfi_def_cfa 7, 8
 197 0145 C3       		ret
 198              		.cfi_endproc
 199              	.LFE1494:
 202              	_Z41__static_initialization_and_destruction_0ii:
 203              	.LFB1975:
 204              		.loc 1 95 0
 205              		.cfi_startproc
 206 0146 55       		pushq	%rbp
 207              		.cfi_def_cfa_offset 16
 208              		.cfi_offset 6, -16
 209 0147 4889E5   		movq	%rsp, %rbp
 210              		.cfi_def_cfa_register 6
 211 014a 4883EC10 		subq	$16, %rsp
 212 014e 897DFC   		movl	%edi, -4(%rbp)
 213 0151 8975F8   		movl	%esi, -8(%rbp)
 214              		.loc 1 95 0
 215 0154 837DFC01 		cmpl	$1, -4(%rbp)
 216 0158 7532     		jne	.L11
 217              		.loc 1 95 0 is_stmt 0 discriminator 1
 218 015a 817DF8FF 		cmpl	$65535, -8(%rbp)
 218      FF0000
 219 0161 7529     		jne	.L11
 220              		.file 2 "/usr/include/c++/7/iostream"
GAS LISTING /tmp/cc7C0tdQ.s 			page 7


   1:/usr/include/c++/7/iostream **** // Standard iostream objects -*- C++ -*-
   2:/usr/include/c++/7/iostream **** 
   3:/usr/include/c++/7/iostream **** // Copyright (C) 1997-2017 Free Software Foundation, Inc.
   4:/usr/include/c++/7/iostream **** //
   5:/usr/include/c++/7/iostream **** // This file is part of the GNU ISO C++ Library.  This library is free
   6:/usr/include/c++/7/iostream **** // software; you can redistribute it and/or modify it under the
   7:/usr/include/c++/7/iostream **** // terms of the GNU General Public License as published by the
   8:/usr/include/c++/7/iostream **** // Free Software Foundation; either version 3, or (at your option)
   9:/usr/include/c++/7/iostream **** // any later version.
  10:/usr/include/c++/7/iostream **** 
  11:/usr/include/c++/7/iostream **** // This library is distributed in the hope that it will be useful,
  12:/usr/include/c++/7/iostream **** // but WITHOUT ANY WARRANTY; without even the implied warranty of
  13:/usr/include/c++/7/iostream **** // MERCHANTABILITY or FITNESS FOR A PARTICULAR PURPOSE.  See the
  14:/usr/include/c++/7/iostream **** // GNU General Public License for more details.
  15:/usr/include/c++/7/iostream **** 
  16:/usr/include/c++/7/iostream **** // Under Section 7 of GPL version 3, you are granted additional
  17:/usr/include/c++/7/iostream **** // permissions described in the GCC Runtime Library Exception, version
  18:/usr/include/c++/7/iostream **** // 3.1, as published by the Free Software Foundation.
  19:/usr/include/c++/7/iostream **** 
  20:/usr/include/c++/7/iostream **** // You should have received a copy of the GNU General Public License and
  21:/usr/include/c++/7/iostream **** // a copy of the GCC Runtime Library Exception along with this program;
  22:/usr/include/c++/7/iostream **** // see the files COPYING3 and COPYING.RUNTIME respectively.  If not, see
  23:/usr/include/c++/7/iostream **** // <http://www.gnu.org/licenses/>.
  24:/usr/include/c++/7/iostream **** 
  25:/usr/include/c++/7/iostream **** /** @file include/iostream
  26:/usr/include/c++/7/iostream ****  *  This is a Standard C++ Library header.
  27:/usr/include/c++/7/iostream ****  */
  28:/usr/include/c++/7/iostream **** 
  29:/usr/include/c++/7/iostream **** //
  30:/usr/include/c++/7/iostream **** // ISO C++ 14882: 27.3  Standard iostream objects
  31:/usr/include/c++/7/iostream **** //
  32:/usr/include/c++/7/iostream **** 
  33:/usr/include/c++/7/iostream **** #ifndef _GLIBCXX_IOSTREAM
  34:/usr/include/c++/7/iostream **** #define _GLIBCXX_IOSTREAM 1
  35:/usr/include/c++/7/iostream **** 
  36:/usr/include/c++/7/iostream **** #pragma GCC system_header
  37:/usr/include/c++/7/iostream **** 
  38:/usr/include/c++/7/iostream **** #include <bits/c++config.h>
  39:/usr/include/c++/7/iostream **** #include <ostream>
  40:/usr/include/c++/7/iostream **** #include <istream>
  41:/usr/include/c++/7/iostream **** 
  42:/usr/include/c++/7/iostream **** namespace std _GLIBCXX_VISIBILITY(default)
  43:/usr/include/c++/7/iostream **** {
  44:/usr/include/c++/7/iostream **** _GLIBCXX_BEGIN_NAMESPACE_VERSION
  45:/usr/include/c++/7/iostream **** 
  46:/usr/include/c++/7/iostream ****   /**
  47:/usr/include/c++/7/iostream ****    *  @name Standard Stream Objects
  48:/usr/include/c++/7/iostream ****    *
  49:/usr/include/c++/7/iostream ****    *  The &lt;iostream&gt; header declares the eight <em>standard stream
  50:/usr/include/c++/7/iostream ****    *  objects</em>.  For other declarations, see
  51:/usr/include/c++/7/iostream ****    *  http://gcc.gnu.org/onlinedocs/libstdc++/manual/io.html
  52:/usr/include/c++/7/iostream ****    *  and the @link iosfwd I/O forward declarations @endlink
  53:/usr/include/c++/7/iostream ****    *
  54:/usr/include/c++/7/iostream ****    *  They are required by default to cooperate with the global C
  55:/usr/include/c++/7/iostream ****    *  library's @c FILE streams, and to be available during program
  56:/usr/include/c++/7/iostream ****    *  startup and termination. For more information, see the section of the
  57:/usr/include/c++/7/iostream ****    *  manual linked to above.
GAS LISTING /tmp/cc7C0tdQ.s 			page 8


  58:/usr/include/c++/7/iostream ****   */
  59:/usr/include/c++/7/iostream ****   //@{
  60:/usr/include/c++/7/iostream ****   extern istream cin;		/// Linked to standard input
  61:/usr/include/c++/7/iostream ****   extern ostream cout;		/// Linked to standard output
  62:/usr/include/c++/7/iostream ****   extern ostream cerr;		/// Linked to standard error (unbuffered)
  63:/usr/include/c++/7/iostream ****   extern ostream clog;		/// Linked to standard error (buffered)
  64:/usr/include/c++/7/iostream **** 
  65:/usr/include/c++/7/iostream **** #ifdef _GLIBCXX_USE_WCHAR_T
  66:/usr/include/c++/7/iostream ****   extern wistream wcin;		/// Linked to standard input
  67:/usr/include/c++/7/iostream ****   extern wostream wcout;	/// Linked to standard output
  68:/usr/include/c++/7/iostream ****   extern wostream wcerr;	/// Linked to standard error (unbuffered)
  69:/usr/include/c++/7/iostream ****   extern wostream wclog;	/// Linked to standard error (buffered)
  70:/usr/include/c++/7/iostream **** #endif
  71:/usr/include/c++/7/iostream ****   //@}
  72:/usr/include/c++/7/iostream **** 
  73:/usr/include/c++/7/iostream ****   // For construction of filebuffers for cout, cin, cerr, clog et. al.
  74:/usr/include/c++/7/iostream ****   static ios_base::Init __ioinit;
 221              		.loc 2 74 0 is_stmt 1
 222 0163 488D3D00 		leaq	_ZStL8__ioinit(%rip), %rdi
 222      000000
 223 016a E8000000 		call	_ZNSt8ios_base4InitC1Ev@PLT
 223      00
 224 016f 488D1500 		leaq	__dso_handle(%rip), %rdx
 224      000000
 225 0176 488D3500 		leaq	_ZStL8__ioinit(%rip), %rsi
 225      000000
 226 017d 488B0500 		movq	_ZNSt8ios_base4InitD1Ev@GOTPCREL(%rip), %rax
 226      000000
 227 0184 4889C7   		movq	%rax, %rdi
 228 0187 E8000000 		call	__cxa_atexit@PLT
 228      00
 229              	.L11:
 230              		.loc 1 95 0
 231 018c 90       		nop
 232 018d C9       		leave
 233              		.cfi_def_cfa 7, 8
 234 018e C3       		ret
 235              		.cfi_endproc
 236              	.LFE1975:
 239              	_GLOBAL__sub_I_main:
 240              	.LFB1976:
 241              		.loc 1 95 0
 242              		.cfi_startproc
 243 018f 55       		pushq	%rbp
 244              		.cfi_def_cfa_offset 16
 245              		.cfi_offset 6, -16
 246 0190 4889E5   		movq	%rsp, %rbp
 247              		.cfi_def_cfa_register 6
 248              		.loc 1 95 0
 249 0193 BEFFFF00 		movl	$65535, %esi
 249      00
 250 0198 BF010000 		movl	$1, %edi
 250      00
 251 019d E8A4FFFF 		call	_Z41__static_initialization_and_destruction_0ii
 251      FF
 252 01a2 5D       		popq	%rbp
 253              		.cfi_def_cfa 7, 8
GAS LISTING /tmp/cc7C0tdQ.s 			page 9


 254 01a3 C3       		ret
 255              		.cfi_endproc
 256              	.LFE1976:
 258              		.section	.init_array,"aw"
 259              		.align 8
 260 0000 00000000 		.quad	_GLOBAL__sub_I_main
 260      00000000 
 261              		.text
 262              	.Letext0:
 263              		.file 3 "/usr/include/c++/7/cwchar"
 264              		.file 4 "/usr/include/c++/7/new"
 265              		.file 5 "/usr/include/c++/7/bits/exception_ptr.h"
 266              		.file 6 "/usr/include/c++/7/type_traits"
 267              		.file 7 "/usr/include/x86_64-linux-gnu/c++/7/bits/c++config.h"
 268              		.file 8 "/usr/include/c++/7/bits/cpp_type_traits.h"
 269              		.file 9 "/usr/include/c++/7/bits/stl_pair.h"
 270              		.file 10 "/usr/include/c++/7/debug/debug.h"
 271              		.file 11 "/usr/include/c++/7/bits/char_traits.h"
 272              		.file 12 "/usr/include/c++/7/cstdint"
 273              		.file 13 "/usr/include/c++/7/clocale"
 274              		.file 14 "/usr/include/c++/7/cstdlib"
 275              		.file 15 "/usr/include/c++/7/cstdio"
 276              		.file 16 "/usr/include/c++/7/bits/basic_string.h"
 277              		.file 17 "/usr/include/c++/7/system_error"
 278              		.file 18 "/usr/include/c++/7/bits/ios_base.h"
 279              		.file 19 "/usr/include/c++/7/cwctype"
 280              		.file 20 "/usr/include/c++/7/iosfwd"
 281              		.file 21 "/usr/include/c++/7/bits/predefined_ops.h"
 282              		.file 22 "/usr/include/c++/7/ext/new_allocator.h"
 283              		.file 23 "/usr/include/c++/7/ext/numeric_traits.h"
 284              		.file 24 "/usr/lib/gcc/x86_64-linux-gnu/7/include/stddef.h"
 285              		.file 25 "<built-in>"
 286              		.file 26 "/usr/include/x86_64-linux-gnu/bits/types/wint_t.h"
 287              		.file 27 "/usr/include/x86_64-linux-gnu/bits/types/__mbstate_t.h"
 288              		.file 28 "/usr/include/x86_64-linux-gnu/bits/types/mbstate_t.h"
 289              		.file 29 "/usr/include/x86_64-linux-gnu/bits/types/__FILE.h"
 290              		.file 30 "/usr/include/libio.h"
 291              		.file 31 "/usr/include/x86_64-linux-gnu/bits/types/FILE.h"
 292              		.file 32 "/usr/include/wchar.h"
 293              		.file 33 "/usr/include/x86_64-linux-gnu/bits/types/struct_tm.h"
 294              		.file 34 "/usr/include/x86_64-linux-gnu/bits/types.h"
 295              		.file 35 "/usr/include/x86_64-linux-gnu/bits/stdint-intn.h"
 296              		.file 36 "/usr/include/x86_64-linux-gnu/bits/stdint-uintn.h"
 297              		.file 37 "/usr/include/stdint.h"
 298              		.file 38 "/usr/include/locale.h"
 299              		.file 39 "/usr/include/time.h"
 300              		.file 40 "/usr/include/x86_64-linux-gnu/c++/7/bits/atomic_word.h"
 301              		.file 41 "/usr/include/stdlib.h"
 302              		.file 42 "/usr/include/_G_config.h"
 303              		.file 43 "/usr/include/stdio.h"
 304              		.file 44 "/usr/include/x86_64-linux-gnu/bits/sys_errlist.h"
 305              		.file 45 "/usr/include/errno.h"
 306              		.file 46 "/usr/include/x86_64-linux-gnu/bits/wctype-wchar.h"
 307              		.file 47 "/usr/include/wctype.h"
GAS LISTING /tmp/cc7C0tdQ.s 			page 10


DEFINED SYMBOLS
                            *ABS*:0000000000000000 main.cpp
     /tmp/cc7C0tdQ.s:7      .rodata:0000000000000000 _ZStL19piecewise_construct
                             .bss:0000000000000000 _ZStL8__ioinit
     /tmp/cc7C0tdQ.s:16     .text:0000000000000000 main
            main.cpp:59     .text:000000000000008e loop
            main.cpp:68     .text:0000000000000098 End
     /tmp/cc7C0tdQ.s:155    .text:00000000000000f7 _Z6strcmpPKcS0_
     /tmp/cc7C0tdQ.s:202    .text:0000000000000146 _Z41__static_initialization_and_destruction_0ii
     /tmp/cc7C0tdQ.s:239    .text:000000000000018f _GLOBAL__sub_I_main

UNDEFINED SYMBOLS
_GLOBAL_OFFSET_TABLE_
calloc
_ZSt3cin
_ZStrsIcSt11char_traitsIcEERSt13basic_istreamIT_T0_ES6_PS3_
printf
_ZNSt8ios_base4InitC1Ev
__dso_handle
_ZNSt8ios_base4InitD1Ev
__cxa_atexit
